; Function Attrs: nounwind uwtable
define void @ff_log_net_error(ptr noundef %0, i32 noundef %1, ptr noundef %2) local_unnamed_addr #1 {
  %4 = alloca [64 x i8], align 1
  call void @llvm.memset.p0.i64(ptr noundef nonnull align 1 dereferenceable(64) %4, i8 0, i64 64, i1 false)
  %5 = tail call ptr @__errno_location() #13
  %6 = load i32, ptr %5, align 4, !tbaa !12
  %7 = sub nsw i32 0, %6
  %8 = call i32 @av_strerror(i32 noundef %7, ptr noundef nonnull %4, i64 noundef 64) #12
  call void (ptr, i32, ptr, ...) @av_log(ptr noundef %0, i32 noundef %1, ptr noundef nonnull @.str.15, ptr noundef %2, ptr noundef nonnull %4) #12
  ret void
}